; Function Attrs: mustprogress nofree norecurse nosync nounwind willreturn memory(read, inaccessiblemem: none) uwtable
define range(i32 0, 256) i32 @lv_display_get_tile_cnt(ptr noundef readonly %0) local_unnamed_addr #6 {
  %2 = icmp eq ptr %0, null
  br i1 %2, label %3, label %.thread

3:                                                ; preds = %1
  %4 = load ptr, ptr getelementptr inbounds nuw (i8, ptr @lv_global, i64 40), align 8, !tbaa !33
  %5 = icmp eq ptr %4, null
  br i1 %5, label %11, label %.thread

.thread:                                          ; preds = %1, %3
  %.06 = phi ptr [ %4, %3 ], [ %0, %1 ]
  %6 = getelementptr inbounds nuw i8, ptr %.06, i64 88
  %7 = load i16, ptr %6, align 8
  %8 = lshr i16 %7, 1
  %9 = and i16 %8, 255
  %10 = zext nneg i16 %9 to i32
  br label %11

11:                                               ; preds = %3, %.thread
  %.03 = phi i32 [ %10, %.thread ], [ 0, %3 ]
  ret i32 %.03
}